target datalayout = "e-m:e-p270:32:32-p271:32:32-p272:64:64-i64:64-i128:128-f80:128-n8:16:32:64-S128"
target triple = "x86_64-pc-linux-gnu"

%struct.expert_field = type { i32, i32 }

@hf_pfcp_ue_level_measurements_configuration_job_type = internal global i32 0, align 4
@hf_pfcp_ue_level_measurements_configuration_number_of_measurement = internal global i32 0, align 4
@hf_pfcp_ue_level_measurements_configuration_measurement_type = internal global i32 0, align 4
@hf_pfcp_ue_level_measurements_configuration_time_period = internal global i32 0, align 4
@ei_pfcp_ie_data_not_decoded = internal global %struct.expert_field zeroinitializer, align 4

; Function Attrs: null_pointer_is_valid sspstrong uwtable
define internal void @dissect_pfcp_ue_level_measurements_configuration(ptr noundef %0, ptr noundef %1, ptr noundef %2, ptr noundef %3, i16 noundef zeroext %4, i8 noundef zeroext %5, ptr noundef %6) #0 {
  %8 = alloca ptr, align 8
  %9 = alloca ptr, align 8
  %10 = alloca ptr, align 8
  %11 = alloca ptr, align 8
  %12 = alloca i16, align 2
  %13 = alloca i8, align 1
  %14 = alloca ptr, align 8
  %15 = alloca i32, align 4
  %16 = alloca i32, align 4
  %17 = alloca i32, align 4
  store ptr %0, ptr %8, align 8
  store ptr %1, ptr %9, align 8
  store ptr %2, ptr %10, align 8
  store ptr %3, ptr %11, align 8
  store i16 %4, ptr %12, align 2
  store i8 %5, ptr %13, align 1
  store ptr %6, ptr %14, align 8
  call void @llvm.lifetime.start.p0(i64 4, ptr %15) #13
  store i32 0, ptr %15, align 4
  call void @llvm.lifetime.start.p0(i64 4, ptr %16) #13
  call void @llvm.lifetime.start.p0(i64 4, ptr %17) #13
  %18 = load ptr, ptr %10, align 8
  %19 = load i32, ptr @hf_pfcp_ue_level_measurements_configuration_job_type, align 4
  %20 = load ptr, ptr %8, align 8
  %21 = load i32, ptr %15, align 4
  %22 = call ptr @proto_tree_add_item(ptr noundef %18, i32 noundef %19, ptr noundef %20, i32 noundef %21, i32 noundef 1, i32 noundef 0)
  %23 = load i32, ptr %15, align 4
  %24 = add i32 %23, 1
  store i32 %24, ptr %15, align 4
  %25 = load ptr, ptr %10, align 8
  %26 = load i32, ptr @hf_pfcp_ue_level_measurements_configuration_number_of_measurement, align 4
  %27 = load ptr, ptr %8, align 8
  %28 = load i32, ptr %15, align 4
  %29 = call ptr @proto_tree_add_item_ret_uint(ptr noundef %25, i32 noundef %26, ptr noundef %27, i32 noundef %28, i32 noundef 1, i32 noundef 0, ptr noundef %16)
  %30 = load i32, ptr %15, align 4
  %31 = add i32 %30, 1
  store i32 %31, ptr %15, align 4
  store i32 0, ptr %17, align 4
  br label %32

32:                                               ; preds = %44, %7
  %33 = load i32, ptr %17, align 4
  %34 = load i32, ptr %16, align 4
  %35 = icmp ult i32 %33, %34
  br i1 %35, label %36, label %47

36:                                               ; preds = %32
  %37 = load ptr, ptr %10, align 8
  %38 = load i32, ptr @hf_pfcp_ue_level_measurements_configuration_measurement_type, align 4
  %39 = load ptr, ptr %8, align 8
  %40 = load i32, ptr %15, align 4
  %41 = call ptr @proto_tree_add_item(ptr noundef %37, i32 noundef %38, ptr noundef %39, i32 noundef %40, i32 noundef 1, i32 noundef 0)
  %42 = load i32, ptr %15, align 4
  %43 = add i32 %42, 1
  store i32 %43, ptr %15, align 4
  br label %44

44:                                               ; preds = %36
  %45 = load i32, ptr %17, align 4
  %46 = add i32 %45, 1
  store i32 %46, ptr %17, align 4
  br label %32, !llvm.loop !25

47:                                               ; preds = %32
  %48 = load ptr, ptr %10, align 8
  %49 = load i32, ptr @hf_pfcp_ue_level_measurements_configuration_time_period, align 4
  %50 = load ptr, ptr %8, align 8
  %51 = load i32, ptr %15, align 4
  %52 = call ptr @proto_tree_add_item(ptr noundef %48, i32 noundef %49, ptr noundef %50, i32 noundef %51, i32 noundef 3, i32 noundef 0)
  %53 = load i32, ptr %15, align 4
  %54 = add i32 %53, 3
  store i32 %54, ptr %15, align 4
  %55 = load i32, ptr %15, align 4
  %56 = load i16, ptr %12, align 2
  %57 = zext i16 %56 to i32
  %58 = icmp slt i32 %55, %57
  br i1 %58, label %59, label %67

59:                                               ; preds = %47
  %60 = load ptr, ptr %10, align 8
  %61 = load ptr, ptr %9, align 8
  %62 = load ptr, ptr %8, align 8
  %63 = load i32, ptr %15, align 4
  %64 = load i16, ptr %12, align 2
  %65 = zext i16 %64 to i32
  %66 = call ptr @proto_tree_add_expert(ptr noundef %60, ptr noundef %61, ptr noundef @ei_pfcp_ie_data_not_decoded, ptr noundef %62, i32 noundef %63, i32 noundef %65)
  br label %67

67:                                               ; preds = %59, %47
  call void @llvm.lifetime.end.p0(i64 4, ptr %17) #13
  call void @llvm.lifetime.end.p0(i64 4, ptr %16) #13
  call void @llvm.lifetime.end.p0(i64 4, ptr %15) #13
  ret void
}