; Function Attrs: null_pointer_is_valid sspstrong uwtable
define internal void @dissect_pfcp_ue_level_measurements_configuration(ptr noundef %0, ptr noundef %1, ptr noundef %2, ptr readnone captures(none) %3, i16 noundef zeroext %4, i8 zeroext %5, ptr readnone captures(none) %6) #0 {
  %8 = alloca i32, align 4
  call void @llvm.lifetime.start.p0(i64 4, ptr nonnull %8) #15
  %9 = load i32, ptr @hf_pfcp_ue_level_measurements_configuration_job_type, align 4
  %10 = tail call ptr @proto_tree_add_item(ptr noundef %2, i32 noundef %9, ptr noundef %0, i32 noundef 0, i32 noundef 1, i32 noundef 0)
  %11 = load i32, ptr @hf_pfcp_ue_level_measurements_configuration_number_of_measurement, align 4
  %12 = call ptr @proto_tree_add_item_ret_uint(ptr noundef %2, i32 noundef %11, ptr noundef %0, i32 noundef 1, i32 noundef 1, i32 noundef 0, ptr noundef nonnull %8)
  %13 = load i32, ptr %8, align 4
  %.not = icmp eq i32 %13, 0
  br i1 %.not, label %._crit_edge, label %.lr.ph

.lr.ph:                                           ; preds = %7, %.lr.ph
  %.028 = phi i32 [ %17, %.lr.ph ], [ 0, %7 ]
  %.02427 = phi i32 [ %16, %.lr.ph ], [ 2, %7 ]
  %14 = load i32, ptr @hf_pfcp_ue_level_measurements_configuration_measurement_type, align 4
  %15 = call ptr @proto_tree_add_item(ptr noundef %2, i32 noundef %14, ptr noundef %0, i32 noundef %.02427, i32 noundef 1, i32 noundef 0)
  %16 = add i32 %.02427, 1
  %17 = add nuw i32 %.028, 1
  %18 = load i32, ptr %8, align 4
  %19 = icmp ult i32 %17, %18
  br i1 %19, label %.lr.ph, label %._crit_edge, !llvm.loop !27

._crit_edge:                                      ; preds = %.lr.ph, %7
  %.024.lcssa = phi i32 [ 2, %7 ], [ %16, %.lr.ph ]
  %20 = load i32, ptr @hf_pfcp_ue_level_measurements_configuration_time_period, align 4
  %21 = call ptr @proto_tree_add_item(ptr noundef %2, i32 noundef %20, ptr noundef %0, i32 noundef %.024.lcssa, i32 noundef 3, i32 noundef 0)
  %22 = add i32 %.024.lcssa, 3
  %23 = zext i16 %4 to i32
  %24 = icmp slt i32 %22, %23
  br i1 %24, label %25, label %27

25:                                               ; preds = %._crit_edge
  %26 = call ptr @proto_tree_add_expert(ptr noundef %2, ptr noundef %1, ptr noundef nonnull @ei_pfcp_ie_data_not_decoded, ptr noundef %0, i32 noundef %22, i32 noundef %23)
  br label %27

27:                                               ; preds = %25, %._crit_edge
  call void @llvm.lifetime.end.p0(i64 4, ptr nonnull %8) #15
  ret void
}